target datalayout = "e-m:e-p270:32:32-p271:32:32-p272:64:64-i64:64-i128:128-f80:128-n8:16:32:64-S128"
target triple = "x86_64-pc-linux-gnu"

%struct.AVRational = type { i32, i32 }
%struct.AVCodecContext = type { ptr, i32, i32, ptr, i32, i32, ptr, ptr, ptr, i64, i32, i32, ptr, i32, %struct.AVRational, %struct.AVRational, %struct.AVRational, i32, i32, i32, i32, i32, %struct.AVRational, i32, i32, i32, i32, i32, i32, i32, i32, i32, i32, i32, ptr, ptr, i32, float, float, float, float, float, float, float, float, float, i32, i32, i32, i32, i32, i32, i32, i32, i32, i32, i32, i32, ptr, ptr, ptr, i32, i32, i32, i32, i32, i32, i32, i32, i32, i32, %struct.AVChannelLayout, i32, i32, i32, i32, i32, i32, i32, i32, ptr, i32, i32, i32, float, float, i32, i32, i32, i32, i32, ptr, i64, i64, float, float, i32, i32, ptr, ptr, i32, i32, i32, i32, i32, ptr, ptr, ptr, ptr, i32, i32, [8 x i64], i32, i32, i32, i32, i32, i32, i32, ptr, ptr, i32, i32, i32, i32, i32, i32, i32, i32, i32, i32, ptr, ptr, i32, i32, ptr, ptr, ptr, ptr, i32, i32, i64, i32, i32, i64, ptr, i64, ptr, i32, ptr, i32 }
%struct.AVChannelLayout = type { i32, i32, %union.anon, ptr }
%union.anon = type { i64 }
%struct.FFCodec = type { %struct.AVCodec, i32, i32, ptr, ptr, ptr, ptr, %union.anon.0, ptr, ptr, ptr, ptr, ptr, ptr }
%struct.AVCodec = type { ptr, ptr, i32, i32, i32, i8, ptr, ptr, ptr, ptr, ptr, ptr, ptr, ptr }
%union.anon.0 = type { ptr }
%struct.AVBufferRef = type { ptr, ptr, i64 }
%struct.AVCodecHWConfigInternal = type { %struct.AVCodecHWConfig, ptr }
%struct.AVCodecHWConfig = type { i32, i32, i32 }
%struct.AVHWDeviceContext = type { ptr, i32, ptr, ptr, ptr }
%struct.AVPixFmtDescriptor = type { ptr, i8, i8, i8, i64, [4 x %struct.AVComponentDescriptor], ptr }
%struct.AVComponentDescriptor = type { i32, i32, i32, i32, i32 }

; Function Attrs: alwaysinline nounwind uwtable
define internal ptr @ffcodec(ptr noundef %0) #3 {
  %2 = alloca ptr, align 8
  store ptr %0, ptr %2, align 8, !tbaa !71
  %3 = load ptr, ptr %2, align 8, !tbaa !71
  ret ptr %3
}

; Function Attrs: nounwind uwtable
define i32 @avcodec_default_get_format(ptr noundef %0, ptr noundef %1) #0 {
  %3 = alloca i32, align 4
  %4 = alloca ptr, align 8
  %5 = alloca ptr, align 8
  %6 = alloca ptr, align 8
  %7 = alloca ptr, align 8
  %8 = alloca i32, align 4
  %9 = alloca i32, align 4
  %10 = alloca ptr, align 8
  %11 = alloca i32, align 4
  store ptr %0, ptr %4, align 8, !tbaa !4
  store ptr %1, ptr %5, align 8, !tbaa !142
  call void @llvm.lifetime.start.p0(i64 8, ptr %6) #11
  call void @llvm.lifetime.start.p0(i64 8, ptr %7) #11
  call void @llvm.lifetime.start.p0(i64 4, ptr %8) #11
  call void @llvm.lifetime.start.p0(i64 4, ptr %9) #11
  %12 = load ptr, ptr %4, align 8, !tbaa !4
  %13 = getelementptr inbounds nuw %struct.AVCodecContext, ptr %12, i32 0, i32 108
  %14 = load ptr, ptr %13, align 8, !tbaa !147
  %15 = icmp ne ptr %14, null
  br i1 %15, label %16, label %97

16:                                               ; preds = %2
  %17 = load ptr, ptr %4, align 8, !tbaa !4
  %18 = getelementptr inbounds nuw %struct.AVCodecContext, ptr %17, i32 0, i32 3
  %19 = load ptr, ptr %18, align 8, !tbaa !50
  %20 = call ptr @ffcodec(ptr noundef %19)
  %21 = getelementptr inbounds nuw %struct.FFCodec, ptr %20, i32 0, i32 11
  %22 = load ptr, ptr %21, align 8, !tbaa !148
  %23 = icmp ne ptr %22, null
  br i1 %23, label %24, label %97

24:                                               ; preds = %16
  call void @llvm.lifetime.start.p0(i64 8, ptr %10) #11
  %25 = load ptr, ptr %4, align 8, !tbaa !4
  %26 = getelementptr inbounds nuw %struct.AVCodecContext, ptr %25, i32 0, i32 108
  %27 = load ptr, ptr %26, align 8, !tbaa !147
  %28 = getelementptr inbounds nuw %struct.AVBufferRef, ptr %27, i32 0, i32 1
  %29 = load ptr, ptr %28, align 8, !tbaa !152
  store ptr %29, ptr %10, align 8, !tbaa !155
  store i32 0, ptr %8, align 4, !tbaa !41
  br label %30

30:                                               ; preds = %90, %24
  %31 = load ptr, ptr %4, align 8, !tbaa !4
  %32 = getelementptr inbounds nuw %struct.AVCodecContext, ptr %31, i32 0, i32 3
  %33 = load ptr, ptr %32, align 8, !tbaa !50
  %34 = call ptr @ffcodec(ptr noundef %33)
  %35 = getelementptr inbounds nuw %struct.FFCodec, ptr %34, i32 0, i32 11
  %36 = load ptr, ptr %35, align 8, !tbaa !148
  %37 = load i32, ptr %8, align 4, !tbaa !41
  %38 = sext i32 %37 to i64
  %39 = getelementptr inbounds ptr, ptr %36, i64 %38
  %40 = load ptr, ptr %39, align 8, !tbaa !157
  %41 = getelementptr inbounds nuw %struct.AVCodecHWConfigInternal, ptr %40, i32 0, i32 0
  store ptr %41, ptr %7, align 8, !tbaa !159
  %42 = load ptr, ptr %7, align 8, !tbaa !159
  %43 = icmp ne ptr %42, null
  br i1 %43, label %45, label %44

44:                                               ; preds = %30
  br label %93

45:                                               ; preds = %30
  %46 = load ptr, ptr %7, align 8, !tbaa !159
  %47 = getelementptr inbounds nuw %struct.AVCodecHWConfig, ptr %46, i32 0, i32 1
  %48 = load i32, ptr %47, align 4, !tbaa !161
  %49 = and i32 %48, 1
  %50 = icmp ne i32 %49, 0
  br i1 %50, label %52, label %51

51:                                               ; preds = %45
  br label %90

52:                                               ; preds = %45
  %53 = load ptr, ptr %10, align 8, !tbaa !155
  %54 = getelementptr inbounds nuw %struct.AVHWDeviceContext, ptr %53, i32 0, i32 1
  %55 = load i32, ptr %54, align 8, !tbaa !163
  %56 = load ptr, ptr %7, align 8, !tbaa !159
  %57 = getelementptr inbounds nuw %struct.AVCodecHWConfig, ptr %56, i32 0, i32 2
  %58 = load i32, ptr %57, align 4, !tbaa !165
  %59 = icmp ne i32 %55, %58
  br i1 %59, label %60, label %61

60:                                               ; preds = %52
  br label %90

61:                                               ; preds = %52
  store i32 0, ptr %9, align 4, !tbaa !41
  br label %62

62:                                               ; preds = %86, %61
  %63 = load ptr, ptr %5, align 8, !tbaa !142
  %64 = load i32, ptr %9, align 4, !tbaa !41
  %65 = sext i32 %64 to i64
  %66 = getelementptr inbounds i32, ptr %63, i64 %65
  %67 = load i32, ptr %66, align 4, !tbaa !41
  %68 = icmp ne i32 %67, -1
  br i1 %68, label %69, label %89

69:                                               ; preds = %62
  %70 = load ptr, ptr %7, align 8, !tbaa !159
  %71 = getelementptr inbounds nuw %struct.AVCodecHWConfig, ptr %70, i32 0, i32 0
  %72 = load i32, ptr %71, align 4, !tbaa !166
  %73 = load ptr, ptr %5, align 8, !tbaa !142
  %74 = load i32, ptr %9, align 4, !tbaa !41
  %75 = sext i32 %74 to i64
  %76 = getelementptr inbounds i32, ptr %73, i64 %75
  %77 = load i32, ptr %76, align 4, !tbaa !41
  %78 = icmp eq i32 %72, %77
  br i1 %78, label %79, label %85

79:                                               ; preds = %69
  %80 = load ptr, ptr %5, align 8, !tbaa !142
  %81 = load i32, ptr %9, align 4, !tbaa !41
  %82 = sext i32 %81 to i64
  %83 = getelementptr inbounds i32, ptr %80, i64 %82
  %84 = load i32, ptr %83, align 4, !tbaa !41
  store i32 %84, ptr %3, align 4
  store i32 1, ptr %11, align 4
  br label %94

85:                                               ; preds = %69
  br label %86

86:                                               ; preds = %85
  %87 = load i32, ptr %9, align 4, !tbaa !41
  %88 = add nsw i32 %87, 1
  store i32 %88, ptr %9, align 4, !tbaa !41
  br label %62, !llvm.loop !167

89:                                               ; preds = %62
  br label %90

90:                                               ; preds = %89, %60, %51
  %91 = load i32, ptr %8, align 4, !tbaa !41
  %92 = add nsw i32 %91, 1
  store i32 %92, ptr %8, align 4, !tbaa !41
  br label %30

93:                                               ; preds = %44
  store i32 0, ptr %11, align 4
  br label %94

94:                                               ; preds = %93, %79
  call void @llvm.lifetime.end.p0(i64 8, ptr %10) #11
  %95 = load i32, ptr %11, align 4
  switch i32 %95, label %188 [
    i32 0, label %96
  ]

96:                                               ; preds = %94
  br label %97

97:                                               ; preds = %96, %16, %2
  store i32 0, ptr %9, align 4, !tbaa !41
  br label %98

98:                                               ; preds = %106, %97
  %99 = load ptr, ptr %5, align 8, !tbaa !142
  %100 = load i32, ptr %9, align 4, !tbaa !41
  %101 = sext i32 %100 to i64
  %102 = getelementptr inbounds i32, ptr %99, i64 %101
  %103 = load i32, ptr %102, align 4, !tbaa !41
  %104 = icmp ne i32 %103, -1
  br i1 %104, label %105, label %109

105:                                              ; preds = %98
  br label %106

106:                                              ; preds = %105
  %107 = load i32, ptr %9, align 4, !tbaa !41
  %108 = add nsw i32 %107, 1
  store i32 %108, ptr %9, align 4, !tbaa !41
  br label %98, !llvm.loop !168

109:                                              ; preds = %98
  %110 = load ptr, ptr %5, align 8, !tbaa !142
  %111 = load i32, ptr %9, align 4, !tbaa !41
  %112 = sub nsw i32 %111, 1
  %113 = sext i32 %112 to i64
  %114 = getelementptr inbounds i32, ptr %110, i64 %113
  %115 = load i32, ptr %114, align 4, !tbaa !41
  %116 = call ptr @av_pix_fmt_desc_get(i32 noundef %115)
  store ptr %116, ptr %6, align 8, !tbaa !169
  %117 = load ptr, ptr %6, align 8, !tbaa !169
  %118 = getelementptr inbounds nuw %struct.AVPixFmtDescriptor, ptr %117, i32 0, i32 4
  %119 = load i64, ptr %118, align 8, !tbaa !171
  %120 = and i64 %119, 8
  %121 = icmp ne i64 %120, 0
  br i1 %121, label %129, label %122

122:                                              ; preds = %109
  %123 = load ptr, ptr %5, align 8, !tbaa !142
  %124 = load i32, ptr %9, align 4, !tbaa !41
  %125 = sub nsw i32 %124, 1
  %126 = sext i32 %125 to i64
  %127 = getelementptr inbounds i32, ptr %123, i64 %126
  %128 = load i32, ptr %127, align 4, !tbaa !41
  store i32 %128, ptr %3, align 4
  store i32 1, ptr %11, align 4
  br label %188

129:                                              ; preds = %109
  store i32 0, ptr %9, align 4, !tbaa !41
  br label %130

130:                                              ; preds = %184, %129
  %131 = load ptr, ptr %5, align 8, !tbaa !142
  %132 = load i32, ptr %9, align 4, !tbaa !41
  %133 = sext i32 %132 to i64
  %134 = getelementptr inbounds i32, ptr %131, i64 %133
  %135 = load i32, ptr %134, align 4, !tbaa !41
  %136 = icmp ne i32 %135, -1
  br i1 %136, label %137, label %187

137:                                              ; preds = %130
  store i32 0, ptr %8, align 4, !tbaa !41
  br label %138

138:                                              ; preds = %159, %137
  %139 = load ptr, ptr %4, align 8, !tbaa !4
  %140 = getelementptr inbounds nuw %struct.AVCodecContext, ptr %139, i32 0, i32 3
  %141 = load ptr, ptr %140, align 8, !tbaa !50
  %142 = load i32, ptr %8, align 4, !tbaa !41
  %143 = call ptr @avcodec_get_hw_config(ptr noundef %141, i32 noundef %142)
  store ptr %143, ptr %7, align 8, !tbaa !159
  %144 = load ptr, ptr %7, align 8, !tbaa !159
  %145 = icmp ne ptr %144, null
  br i1 %145, label %147, label %146

146:                                              ; preds = %138
  br label %162

147:                                              ; preds = %138
  %148 = load ptr, ptr %7, align 8, !tbaa !159
  %149 = getelementptr inbounds nuw %struct.AVCodecHWConfig, ptr %148, i32 0, i32 0
  %150 = load i32, ptr %149, align 4, !tbaa !166
  %151 = load ptr, ptr %5, align 8, !tbaa !142
  %152 = load i32, ptr %9, align 4, !tbaa !41
  %153 = sext i32 %152 to i64
  %154 = getelementptr inbounds i32, ptr %151, i64 %153
  %155 = load i32, ptr %154, align 4, !tbaa !41
  %156 = icmp eq i32 %150, %155
  br i1 %156, label %157, label %158

157:                                              ; preds = %147
  br label %162

158:                                              ; preds = %147
  br label %159

159:                                              ; preds = %158
  %160 = load i32, ptr %8, align 4, !tbaa !41
  %161 = add nsw i32 %160, 1
  store i32 %161, ptr %8, align 4, !tbaa !41
  br label %138

162:                                              ; preds = %157, %146
  %163 = load ptr, ptr %7, align 8, !tbaa !159
  %164 = icmp ne ptr %163, null
  br i1 %164, label %171, label %165

165:                                              ; preds = %162
  %166 = load ptr, ptr %5, align 8, !tbaa !142
  %167 = load i32, ptr %9, align 4, !tbaa !41
  %168 = sext i32 %167 to i64
  %169 = getelementptr inbounds i32, ptr %166, i64 %168
  %170 = load i32, ptr %169, align 4, !tbaa !41
  store i32 %170, ptr %3, align 4
  store i32 1, ptr %11, align 4
  br label %188

171:                                              ; preds = %162
  %172 = load ptr, ptr %7, align 8, !tbaa !159
  %173 = getelementptr inbounds nuw %struct.AVCodecHWConfig, ptr %172, i32 0, i32 1
  %174 = load i32, ptr %173, align 4, !tbaa !161
  %175 = and i32 %174, 4
  %176 = icmp ne i32 %175, 0
  br i1 %176, label %177, label %183

177:                                              ; preds = %171
  %178 = load ptr, ptr %5, align 8, !tbaa !142
  %179 = load i32, ptr %9, align 4, !tbaa !41
  %180 = sext i32 %179 to i64
  %181 = getelementptr inbounds i32, ptr %178, i64 %180
  %182 = load i32, ptr %181, align 4, !tbaa !41
  store i32 %182, ptr %3, align 4
  store i32 1, ptr %11, align 4
  br label %188

183:                                              ; preds = %171
  br label %184

184:                                              ; preds = %183
  %185 = load i32, ptr %9, align 4, !tbaa !41
  %186 = add nsw i32 %185, 1
  store i32 %186, ptr %9, align 4, !tbaa !41
  br label %130, !llvm.loop !173

187:                                              ; preds = %130
  store i32 -1, ptr %3, align 4
  store i32 1, ptr %11, align 4
  br label %188

188:                                              ; preds = %187, %177, %165, %122, %94
  call void @llvm.lifetime.end.p0(i64 4, ptr %9) #11
  call void @llvm.lifetime.end.p0(i64 4, ptr %8) #11
  call void @llvm.lifetime.end.p0(i64 8, ptr %7) #11
  call void @llvm.lifetime.end.p0(i64 8, ptr %6) #11
  %189 = load i32, ptr %3, align 4
  ret i32 %189
}