; Function Attrs: nounwind uwtable
define i32 @avcodec_default_get_format(ptr noundef readonly captures(none) %0, ptr noundef readonly captures(none) %1) local_unnamed_addr #0 {
  %3 = getelementptr inbounds nuw i8, ptr %0, i64 560
  %4 = load ptr, ptr %3, align 8, !tbaa !133
  %.not = icmp eq ptr %4, null
  br i1 %.not, label %.thread.preheader, label %5

5:                                                ; preds = %2
  %6 = getelementptr inbounds nuw i8, ptr %0, i64 16
  %7 = load ptr, ptr %6, align 8, !tbaa !36
  %8 = getelementptr inbounds nuw i8, ptr %7, i64 168
  %9 = load ptr, ptr %8, align 8, !tbaa !134
  %.not52 = icmp eq ptr %9, null
  br i1 %.not52, label %.thread.preheader, label %10

10:                                               ; preds = %5
  %11 = load ptr, ptr %9, align 8, !tbaa !138
  %.not5374 = icmp eq ptr %11, null
  br i1 %.not5374, label %.thread.preheader, label %.lr.ph76

.lr.ph76:                                         ; preds = %10
  %12 = getelementptr inbounds nuw i8, ptr %4, i64 8
  %13 = load ptr, ptr %12, align 8, !tbaa !140
  %14 = getelementptr inbounds nuw i8, ptr %13, i64 8
  br label %15

15:                                               ; preds = %.lr.ph76, %.loopexit65
  %indvars.iv99 = phi i64 [ 0, %.lr.ph76 ], [ %indvars.iv.next100, %.loopexit65 ]
  %16 = phi ptr [ %11, %.lr.ph76 ], [ %33, %.loopexit65 ]
  %17 = getelementptr inbounds nuw i8, ptr %16, i64 4
  %18 = load i32, ptr %17, align 4, !tbaa !143
  %19 = and i32 %18, 1
  %.not54 = icmp eq i32 %19, 0
  br i1 %.not54, label %.loopexit65, label %20

20:                                               ; preds = %15
  %21 = load i32, ptr %14, align 8, !tbaa !145
  %22 = getelementptr inbounds nuw i8, ptr %16, i64 8
  %23 = load i32, ptr %22, align 4, !tbaa !147
  %.not55 = icmp eq i32 %21, %23
  br i1 %.not55, label %.preheader64, label %.loopexit65

.preheader64:                                     ; preds = %20
  %24 = load i32, ptr %1, align 4, !tbaa !69
  %.not5672 = icmp eq i32 %24, -1
  br i1 %.not5672, label %.loopexit65, label %.lr.ph

.lr.ph:                                           ; preds = %.preheader64
  %25 = load i32, ptr %16, align 4, !tbaa !148
  br label %29

26:                                               ; preds = %29
  %indvars.iv.next = add nuw nsw i64 %indvars.iv, 1
  %27 = getelementptr inbounds nuw i32, ptr %1, i64 %indvars.iv.next
  %28 = load i32, ptr %27, align 4, !tbaa !69
  %.not56 = icmp eq i32 %28, -1
  br i1 %.not56, label %.loopexit65, label %29, !llvm.loop !149

29:                                               ; preds = %.lr.ph, %26
  %indvars.iv = phi i64 [ 0, %.lr.ph ], [ %indvars.iv.next, %26 ]
  %30 = phi i32 [ %24, %.lr.ph ], [ %28, %26 ]
  %31 = icmp eq i32 %25, %30
  br i1 %31, label %.loopexit, label %26

.loopexit65:                                      ; preds = %26, %.preheader64, %20, %15
  %indvars.iv.next100 = add nuw nsw i64 %indvars.iv99, 1
  %32 = getelementptr inbounds nuw ptr, ptr %9, i64 %indvars.iv.next100
  %33 = load ptr, ptr %32, align 8, !tbaa !138
  %.not53 = icmp eq ptr %33, null
  br i1 %.not53, label %.thread.preheader, label %15

.thread.preheader:                                ; preds = %.loopexit65, %10, %5, %2
  br label %.thread

.thread:                                          ; preds = %.thread.preheader, %.thread
  %indvars.iv102 = phi i64 [ %indvars.iv.next103, %.thread ], [ 0, %.thread.preheader ]
  %34 = getelementptr inbounds nuw i32, ptr %1, i64 %indvars.iv102
  %35 = load i32, ptr %34, align 4, !tbaa !69
  %.not57 = icmp eq i32 %35, -1
  %indvars.iv.next103 = add nuw nsw i64 %indvars.iv102, 1
  br i1 %.not57, label %36, label %.thread, !llvm.loop !150

36:                                               ; preds = %.thread
  %37 = getelementptr inbounds nuw i32, ptr %1, i64 %indvars.iv102
  %38 = getelementptr i8, ptr %37, i64 -4
  %39 = load i32, ptr %38, align 4, !tbaa !69
  %40 = tail call ptr @av_pix_fmt_desc_get(i32 noundef %39) #10
  %41 = getelementptr inbounds nuw i8, ptr %40, i64 16
  %42 = load i64, ptr %41, align 8, !tbaa !151
  %43 = and i64 %42, 8
  %.not58 = icmp eq i64 %43, 0
  br i1 %.not58, label %46, label %.preheader63

.preheader63:                                     ; preds = %36
  %44 = load i32, ptr %1, align 4, !tbaa !69
  %.not5982 = icmp eq i32 %44, -1
  br i1 %.not5982, label %.loopexit, label %.preheader.lr.ph

.preheader.lr.ph:                                 ; preds = %.preheader63
  %45 = getelementptr inbounds nuw i8, ptr %0, i64 16
  br label %.preheader

46:                                               ; preds = %36
  %47 = load i32, ptr %38, align 4, !tbaa !69
  br label %.loopexit

48:                                               ; preds = %63
  %indvars.iv.next106 = add nuw nsw i64 %indvars.iv105, 1
  %49 = getelementptr inbounds nuw i32, ptr %1, i64 %indvars.iv.next106
  %50 = load i32, ptr %49, align 4, !tbaa !69
  %.not59 = icmp eq i32 %50, -1
  br i1 %.not59, label %.loopexit, label %.preheader, !llvm.loop !153

.preheader:                                       ; preds = %.preheader.lr.ph, %48
  %indvars.iv105 = phi i64 [ 0, %.preheader.lr.ph ], [ %indvars.iv.next106, %48 ]
  %51 = getelementptr inbounds nuw i32, ptr %1, i64 %indvars.iv105
  %52 = load ptr, ptr %45, align 8, !tbaa !36
  %53 = tail call ptr @avcodec_get_hw_config(ptr noundef %52, i32 noundef 0) #10
  %.not6078 = icmp eq ptr %53, null
  br i1 %.not6078, label %.critedge, label %.lr.ph80

54:                                               ; preds = %.lr.ph80
  %55 = add nuw nsw i32 %.14779, 1
  %56 = load ptr, ptr %45, align 8, !tbaa !36
  %57 = tail call ptr @avcodec_get_hw_config(ptr noundef %56, i32 noundef %55) #10
  %.not60 = icmp eq ptr %57, null
  br i1 %.not60, label %.critedge, label %.lr.ph80

.lr.ph80:                                         ; preds = %.preheader, %54
  %58 = phi ptr [ %57, %54 ], [ %53, %.preheader ]
  %.14779 = phi i32 [ %55, %54 ], [ 0, %.preheader ]
  %59 = load i32, ptr %58, align 4, !tbaa !148
  %60 = load i32, ptr %51, align 4, !tbaa !69
  %61 = icmp eq i32 %59, %60
  br i1 %61, label %63, label %54

.critedge:                                        ; preds = %.preheader, %54
  %62 = load i32, ptr %51, align 4, !tbaa !69
  br label %.loopexit

63:                                               ; preds = %.lr.ph80
  %64 = getelementptr inbounds nuw i8, ptr %58, i64 4
  %65 = load i32, ptr %64, align 4, !tbaa !143
  %66 = and i32 %65, 4
  %.not61 = icmp eq i32 %66, 0
  br i1 %.not61, label %48, label %.loopexit

.loopexit:                                        ; preds = %29, %48, %63, %.preheader63, %.critedge, %46
  %.1 = phi i32 [ %62, %.critedge ], [ %47, %46 ], [ -1, %.preheader63 ], [ -1, %48 ], [ %59, %63 ], [ %25, %29 ]
  ret i32 %.1
}